target datalayout = "e-m:e-p270:32:32-p271:32:32-p272:64:64-i64:64-i128:128-f80:128-n8:16:32:64-S128"
target triple = "x86_64-unknown-linux-gnu"

%"class.icu_75::Formattable" = type { %"class.icu_75::UObject", %union.anon, ptr, ptr, i32, %"class.icu_75::UnicodeString" }
%"class.icu_75::UObject" = type { ptr }
%union.anon = type { %struct.anon }
%struct.anon = type { ptr, i32 }
%"class.icu_75::UnicodeString" = type { %"class.icu_75::Replaceable", %"union.icu_75::UnicodeString::StackBufferOrFields" }
%"class.icu_75::Replaceable" = type { %"class.icu_75::UObject" }
%"union.icu_75::UnicodeString::StackBufferOrFields" = type { %struct.anon.1, [32 x i8] }
%struct.anon.1 = type { i16, i32, i32, ptr }

@_ZN6icu_7511FormattableC1Ev = unnamed_addr alias void (ptr), ptr @_ZN6icu_7511FormattableC2Ev
@_ZN6icu_7511FormattableD1Ev = unnamed_addr alias void (ptr), ptr @_ZN6icu_7511FormattableD2Ev

; Function Attrs: mustprogress uwtable
define internal noundef ptr @_ZN6icu_75L15createArrayCopyEPKNS_11FormattableEi(ptr noundef %array, i32 noundef %count) #1 personality ptr @__gxx_personality_v0 {
entry:
  %array.addr = alloca ptr, align 8
  %count.addr = alloca i32, align 4
  %result = alloca ptr, align 8
  %cleanup.cond = alloca i1, align 1
  %cond-cleanup.save = alloca ptr, align 8
  %cond-cleanup.save1 = alloca ptr, align 8
  %cleanup.cond2 = alloca i1, align 1
  %exn.slot = alloca ptr, align 8
  %ehselector.slot = alloca i32, align 4
  %i = alloca i32, align 4
  store ptr %array, ptr %array.addr, align 8
  store i32 %count, ptr %count.addr, align 4
  %0 = load i32, ptr %count.addr, align 4
  %conv = sext i32 %0 to i64
  %1 = call { i64, i1 } @llvm.umul.with.overflow.i64(i64 %conv, i64 112)
  %2 = extractvalue { i64, i1 } %1, 1
  %3 = extractvalue { i64, i1 } %1, 0
  %4 = call { i64, i1 } @llvm.uadd.with.overflow.i64(i64 %3, i64 8)
  %5 = extractvalue { i64, i1 } %4, 1
  %6 = or i1 %2, %5
  %7 = extractvalue { i64, i1 } %4, 0
  %8 = select i1 %6, i64 -1, i64 %7
  %call = call noundef ptr @_ZN6icu_757UMemorynaEm(i64 noundef %8) #10
  %new.isnull = icmp eq ptr %call, null
  store i1 false, ptr %cleanup.cond, align 1
  store i1 false, ptr %cleanup.cond2, align 1
  br i1 %new.isnull, label %new.cont, label %new.notnull

new.notnull:                                      ; preds = %entry
  store i1 true, ptr %cleanup.cond, align 1
  store i64 %conv, ptr %call, align 8
  %9 = getelementptr inbounds i8, ptr %call, i64 8
  %isempty = icmp eq i64 %conv, 0
  br i1 %isempty, label %arrayctor.cont, label %new.ctorloop

new.ctorloop:                                     ; preds = %new.notnull
  %arrayctor.end = getelementptr inbounds %"class.icu_75::Formattable", ptr %9, i64 %conv
  br label %arrayctor.loop

arrayctor.loop:                                   ; preds = %invoke.cont, %new.ctorloop
  %arrayctor.cur = phi ptr [ %9, %new.ctorloop ], [ %arrayctor.next, %invoke.cont ]
  store ptr %9, ptr %cond-cleanup.save, align 8
  store ptr %arrayctor.cur, ptr %cond-cleanup.save1, align 8
  store i1 true, ptr %cleanup.cond2, align 1
  invoke void @_ZN6icu_7511FormattableC1Ev(ptr noundef nonnull align 8 dereferenceable(112) %arrayctor.cur)
          to label %invoke.cont unwind label %lpad

invoke.cont:                                      ; preds = %arrayctor.loop
  %arrayctor.next = getelementptr inbounds %"class.icu_75::Formattable", ptr %arrayctor.cur, i64 1
  %arrayctor.done = icmp eq ptr %arrayctor.next, %arrayctor.end
  br i1 %arrayctor.done, label %arrayctor.cont, label %arrayctor.loop

arrayctor.cont:                                   ; preds = %invoke.cont, %new.notnull
  br label %new.cont

new.cont:                                         ; preds = %arrayctor.cont, %entry
  %10 = phi ptr [ %9, %arrayctor.cont ], [ null, %entry ]
  store ptr %10, ptr %result, align 8
  %11 = load ptr, ptr %result, align 8
  %cmp = icmp ne ptr %11, null
  br i1 %cmp, label %if.then, label %if.end

if.then:                                          ; preds = %new.cont
  store i32 0, ptr %i, align 4
  br label %for.cond

for.cond:                                         ; preds = %for.inc, %if.then
  %12 = load i32, ptr %i, align 4
  %13 = load i32, ptr %count.addr, align 4
  %cmp7 = icmp slt i32 %12, %13
  br i1 %cmp7, label %for.body, label %for.end

for.body:                                         ; preds = %for.cond
  %14 = load ptr, ptr %array.addr, align 8
  %15 = load i32, ptr %i, align 4
  %idxprom = sext i32 %15 to i64
  %arrayidx = getelementptr inbounds %"class.icu_75::Formattable", ptr %14, i64 %idxprom
  %16 = load ptr, ptr %result, align 8
  %17 = load i32, ptr %i, align 4
  %idxprom8 = sext i32 %17 to i64
  %arrayidx9 = getelementptr inbounds %"class.icu_75::Formattable", ptr %16, i64 %idxprom8
  %call10 = call noundef nonnull align 8 dereferenceable(112) ptr @_ZN6icu_7511FormattableaSERKS0_(ptr noundef nonnull align 8 dereferenceable(112) %arrayidx9, ptr noundef nonnull align 8 dereferenceable(112) %arrayidx)
  br label %for.inc

for.inc:                                          ; preds = %for.body
  %18 = load i32, ptr %i, align 4
  %inc = add nsw i32 %18, 1
  store i32 %inc, ptr %i, align 4
  br label %for.cond, !llvm.loop !4

lpad:                                             ; preds = %arrayctor.loop
  %19 = landingpad { ptr, i32 }
          cleanup
  %20 = extractvalue { ptr, i32 } %19, 0
  store ptr %20, ptr %exn.slot, align 8
  %21 = extractvalue { ptr, i32 } %19, 1
  store i32 %21, ptr %ehselector.slot, align 4
  %cleanup.is_active = load i1, ptr %cleanup.cond2, align 1
  br i1 %cleanup.is_active, label %cleanup.action, label %cleanup.done

cleanup.action:                                   ; preds = %lpad
  %22 = load ptr, ptr %cond-cleanup.save, align 8
  %23 = load ptr, ptr %cond-cleanup.save1, align 8
  %arraydestroy.isempty = icmp eq ptr %22, %23
  br i1 %arraydestroy.isempty, label %arraydestroy.done3, label %arraydestroy.body

arraydestroy.body:                                ; preds = %arraydestroy.body, %cleanup.action
  %arraydestroy.elementPast = phi ptr [ %23, %cleanup.action ], [ %arraydestroy.element, %arraydestroy.body ]
  %arraydestroy.element = getelementptr inbounds %"class.icu_75::Formattable", ptr %arraydestroy.elementPast, i64 -1
  call void @_ZN6icu_7511FormattableD1Ev(ptr noundef nonnull align 8 dereferenceable(112) %arraydestroy.element) #10
  %arraydestroy.done = icmp eq ptr %arraydestroy.element, %22
  br i1 %arraydestroy.done, label %arraydestroy.done3, label %arraydestroy.body

arraydestroy.done3:                               ; preds = %arraydestroy.body, %cleanup.action
  br label %cleanup.done

cleanup.done:                                     ; preds = %arraydestroy.done3, %lpad
  %cleanup.is_active4 = load i1, ptr %cleanup.cond, align 1
  br i1 %cleanup.is_active4, label %cleanup.action5, label %cleanup.done6

cleanup.action5:                                  ; preds = %cleanup.done
  call void @_ZN6icu_757UMemorydaEPv(ptr noundef %call) #10
  br label %cleanup.done6

cleanup.done6:                                    ; preds = %cleanup.action5, %cleanup.done
  br label %eh.resume

for.end:                                          ; preds = %for.cond
  br label %if.end

if.end:                                           ; preds = %for.end, %new.cont
  %24 = load ptr, ptr %result, align 8
  ret ptr %24

eh.resume:                                        ; preds = %cleanup.done6
  %exn = load ptr, ptr %exn.slot, align 8
  %sel = load i32, ptr %ehselector.slot, align 4
  %lpad.val = insertvalue { ptr, i32 } poison, ptr %exn, 0
  %lpad.val11 = insertvalue { ptr, i32 } %lpad.val, i32 %sel, 1
  resume { ptr, i32 } %lpad.val11
}

; Function Attrs: mustprogress uwtable
define void @_ZN6icu_7511Formattable8setArrayEPKS0_i(ptr noundef nonnull align 8 dereferenceable(112) %this, ptr noundef %array, i32 noundef %count) #1 align 2 {
entry:
  %this.addr = alloca ptr, align 8
  %array.addr = alloca ptr, align 8
  %count.addr = alloca i32, align 4
  store ptr %this, ptr %this.addr, align 8
  store ptr %array, ptr %array.addr, align 8
  store i32 %count, ptr %count.addr, align 4
  %this1 = load ptr, ptr %this.addr, align 8
  call void @_ZN6icu_7511Formattable7disposeEv(ptr noundef nonnull align 8 dereferenceable(112) %this1)
  %fType = getelementptr inbounds %"class.icu_75::Formattable", ptr %this1, i32 0, i32 4
  store i32 4, ptr %fType, align 8
  %0 = load ptr, ptr %array.addr, align 8
  %1 = load i32, ptr %count.addr, align 4
  %call = call noundef ptr @_ZN6icu_75L15createArrayCopyEPKNS_11FormattableEi(ptr noundef %0, i32 noundef %1)
  %fValue = getelementptr inbounds %"class.icu_75::Formattable", ptr %this1, i32 0, i32 1
  %fArray = getelementptr inbounds %struct.anon, ptr %fValue, i32 0, i32 0
  store ptr %call, ptr %fArray, align 8
  %2 = load i32, ptr %count.addr, align 4
  %fValue2 = getelementptr inbounds %"class.icu_75::Formattable", ptr %this1, i32 0, i32 1
  %fCount = getelementptr inbounds %struct.anon, ptr %fValue2, i32 0, i32 1
  store i32 %2, ptr %fCount, align 8
  ret void
}