; Function Attrs: mustprogress uwtable
define void @_ZN6icu_7511Formattable8setArrayEPKS0_i(ptr nocapture noundef nonnull align 8 dereferenceable(112) %this, ptr noundef %array, i32 noundef %count) local_unnamed_addr #1 align 2 personality ptr @__gxx_personality_v0 {
entry:
  tail call void @_ZN6icu_7511Formattable7disposeEv(ptr noundef nonnull align 8 dereferenceable(112) %this)
  %fType = getelementptr inbounds i8, ptr %this, i64 40
  store i32 4, ptr %fType, align 8
  %conv.i = sext i32 %count to i64
  %0 = tail call { i64, i1 } @llvm.umul.with.overflow.i64(i64 %conv.i, i64 112)
  %1 = extractvalue { i64, i1 } %0, 1
  %2 = extractvalue { i64, i1 } %0, 0
  %3 = or disjoint i64 %2, 8
  %4 = select i1 %1, i64 -1, i64 %3
  %call.i = tail call noundef ptr @_ZN6icu_757UMemorynaEm(i64 noundef %4) #16
  %new.isnull.i = icmp eq ptr %call.i, null
  br i1 %new.isnull.i, label %_ZN6icu_75L15createArrayCopyEPKNS_11FormattableEi.exit, label %new.notnull.i

new.notnull.i:                                    ; preds = %entry
  store i64 %conv.i, ptr %call.i, align 8
  %.ptr.i = getelementptr inbounds i8, ptr %call.i, i64 8
  %isempty.i = icmp eq i32 %count, 0
  br i1 %isempty.i, label %_ZN6icu_75L15createArrayCopyEPKNS_11FormattableEi.exit, label %new.ctorloop.i

new.ctorloop.i:                                   ; preds = %new.notnull.i
  %arrayctor.end.i = getelementptr inbounds %"class.icu_75::Formattable", ptr %.ptr.i, i64 %conv.i
  br label %arrayctor.loop.i

arrayctor.loop.i:                                 ; preds = %invoke.cont.i, %new.ctorloop.i
  %arrayctor.cur.idx.i = phi i64 [ 8, %new.ctorloop.i ], [ %arrayctor.cur.add.i, %invoke.cont.i ]
  %arrayctor.cur.ptr.ptr.i = getelementptr inbounds i8, ptr %call.i, i64 %arrayctor.cur.idx.i
  invoke void @_ZN6icu_7511FormattableC1Ev(ptr noundef nonnull align 8 dereferenceable(112) %arrayctor.cur.ptr.ptr.i)
          to label %invoke.cont.i unwind label %lpad.i

invoke.cont.i:                                    ; preds = %arrayctor.loop.i
  %arrayctor.cur.add.i = add nuw nsw i64 %arrayctor.cur.idx.i, 112
  %arrayctor.next.ptr.i = getelementptr inbounds i8, ptr %call.i, i64 %arrayctor.cur.add.i
  %arrayctor.done.i = icmp eq ptr %arrayctor.next.ptr.i, %arrayctor.end.i
  br i1 %arrayctor.done.i, label %new.cont.i, label %arrayctor.loop.i

new.cont.i:                                       ; preds = %invoke.cont.i
  %cmp79.i = icmp sgt i32 %count, 0
  br i1 %cmp79.i, label %for.body.preheader.i, label %_ZN6icu_75L15createArrayCopyEPKNS_11FormattableEi.exit

for.body.preheader.i:                             ; preds = %new.cont.i
  %wide.trip.count.i = zext nneg i32 %count to i64
  br label %for.body.i

for.body.i:                                       ; preds = %for.body.i, %for.body.preheader.i
  %indvars.iv.i = phi i64 [ 0, %for.body.preheader.i ], [ %indvars.iv.next.i, %for.body.i ]
  %arrayidx.i = getelementptr inbounds %"class.icu_75::Formattable", ptr %array, i64 %indvars.iv.i
  %arrayidx9.i = getelementptr inbounds %"class.icu_75::Formattable", ptr %.ptr.i, i64 %indvars.iv.i
  %call10.i = tail call noundef nonnull align 8 dereferenceable(112) ptr @_ZN6icu_7511FormattableaSERKS0_(ptr noundef nonnull align 8 dereferenceable(112) %arrayidx9.i, ptr noundef nonnull align 8 dereferenceable(112) %arrayidx.i)
  %indvars.iv.next.i = add nuw nsw i64 %indvars.iv.i, 1
  %exitcond.not.i = icmp eq i64 %indvars.iv.next.i, %wide.trip.count.i
  br i1 %exitcond.not.i, label %_ZN6icu_75L15createArrayCopyEPKNS_11FormattableEi.exit, label %for.body.i, !llvm.loop !4

lpad.i:                                           ; preds = %arrayctor.loop.i
  %5 = landingpad { ptr, i32 }
          cleanup
  %arraydestroy.isempty.i = icmp eq i64 %arrayctor.cur.idx.i, 8
  br i1 %arraydestroy.isempty.i, label %cleanup.action5.i, label %arraydestroy.body.i

arraydestroy.body.i:                              ; preds = %lpad.i, %arraydestroy.body.i
  %arraydestroy.elementPast.idx.i = phi i64 [ %arraydestroy.elementPast.add.i, %arraydestroy.body.i ], [ %arrayctor.cur.idx.i, %lpad.i ]
  %arraydestroy.elementPast.add.i = add nsw i64 %arraydestroy.elementPast.idx.i, -112
  %arraydestroy.element.ptr.i = getelementptr inbounds i8, ptr %call.i, i64 %arraydestroy.elementPast.add.i
  tail call void @_ZN6icu_7511FormattableD1Ev(ptr noundef nonnull align 8 dereferenceable(112) %arraydestroy.element.ptr.i) #16
  %arraydestroy.done.i = icmp eq i64 %arraydestroy.elementPast.add.i, 8
  br i1 %arraydestroy.done.i, label %cleanup.action5.i, label %arraydestroy.body.i

cleanup.action5.i:                                ; preds = %arraydestroy.body.i, %lpad.i
  tail call void @_ZN6icu_757UMemorydaEPv(ptr noundef nonnull %call.i) #16
  resume { ptr, i32 } %5

_ZN6icu_75L15createArrayCopyEPKNS_11FormattableEi.exit: ; preds = %for.body.i, %entry, %new.notnull.i, %new.cont.i
  %6 = phi ptr [ null, %entry ], [ %.ptr.i, %new.cont.i ], [ %.ptr.i, %new.notnull.i ], [ %.ptr.i, %for.body.i ]
  %fValue = getelementptr inbounds i8, ptr %this, i64 8
  store ptr %6, ptr %fValue, align 8
  %fCount = getelementptr inbounds i8, ptr %this, i64 16
  store i32 %count, ptr %fCount, align 8
  ret void
}